target datalayout = "e-m:e-p270:32:32-p271:32:32-p272:64:64-i64:64-i128:128-f80:128-n8:16:32:64-S128"
target triple = "x86_64-pc-linux-gnu"

; Function Attrs: nounwind uwtable
define internal i32 @assign_dim_array_result_type(i32 noundef %0, i32 noundef %1, i32 noundef %2, i8 noundef zeroext %3) #0 {
  %5 = alloca i32, align 4
  %6 = alloca i32, align 4
  %7 = alloca i32, align 4
  %8 = alloca i8, align 1
  %9 = alloca i32, align 4
  store i32 %0, ptr %5, align 4
  store i32 %1, ptr %6, align 4
  store i32 %2, ptr %7, align 4
  store i8 %3, ptr %8, align 1
  store i32 0, ptr %9, align 4
  %10 = load i32, ptr %7, align 4
  %11 = and i32 %10, 1023
  %12 = icmp ne i32 %11, 0
  br i1 %12, label %13, label %111

13:                                               ; preds = %4
  %14 = load i32, ptr %7, align 4
  %15 = and i32 %14, 1
  %16 = icmp ne i32 %15, 0
  br i1 %16, label %17, label %20

17:                                               ; preds = %13
  %18 = load i32, ptr %7, align 4
  %19 = or i32 %18, 2
  store i32 %19, ptr %7, align 4
  br label %20

20:                                               ; preds = %17, %13
  %21 = load i8, ptr %8, align 1
  %22 = zext i8 %21 to i32
  %23 = icmp eq i32 %22, 0
  br i1 %23, label %24, label %45

24:                                               ; preds = %20
  %25 = load i32, ptr %5, align 4
  %26 = and i32 %25, 7
  %27 = icmp ne i32 %26, 0
  br i1 %27, label %28, label %31

28:                                               ; preds = %24
  %29 = load i32, ptr %9, align 4
  %30 = or i32 %29, 2097152
  store i32 %30, ptr %9, align 4
  br label %31

31:                                               ; preds = %28, %24
  %32 = load i32, ptr %5, align 4
  %33 = and i32 %32, 12582912
  %34 = icmp ne i32 %33, 0
  br i1 %34, label %35, label %40

35:                                               ; preds = %31
  %36 = load i32, ptr %5, align 4
  %37 = and i32 %36, 538968064
  %38 = icmp ne i32 %37, 0
  %39 = xor i1 %38, true
  br label %40

40:                                               ; preds = %35, %31
  %41 = phi i1 [ false, %31 ], [ %39, %35 ]
  %42 = select i1 %41, i32 4194304, i32 6291456
  %43 = load i32, ptr %9, align 4
  %44 = or i32 %43, %42
  store i32 %44, ptr %9, align 4
  br label %110

45:                                               ; preds = %20
  %46 = load i32, ptr %6, align 4
  %47 = and i32 %46, 572
  %48 = icmp ne i32 %47, 0
  br i1 %48, label %49, label %70

49:                                               ; preds = %45
  %50 = load i32, ptr %5, align 4
  %51 = and i32 %50, 7
  %52 = icmp ne i32 %51, 0
  br i1 %52, label %53, label %56

53:                                               ; preds = %49
  %54 = load i32, ptr %9, align 4
  %55 = or i32 %54, 2097152
  store i32 %55, ptr %9, align 4
  br label %56

56:                                               ; preds = %53, %49
  %57 = load i32, ptr %5, align 4
  %58 = and i32 %57, 12582912
  %59 = icmp ne i32 %58, 0
  br i1 %59, label %60, label %65

60:                                               ; preds = %56
  %61 = load i32, ptr %5, align 4
  %62 = and i32 %61, 538968064
  %63 = icmp ne i32 %62, 0
  %64 = xor i1 %63, true
  br label %65

65:                                               ; preds = %60, %56
  %66 = phi i1 [ false, %56 ], [ %64, %60 ]
  %67 = select i1 %66, i32 4194304, i32 6291456
  %68 = load i32, ptr %9, align 4
  %69 = or i32 %68, %67
  store i32 %69, ptr %9, align 4
  br label %70

70:                                               ; preds = %65, %45
  %71 = load i32, ptr %6, align 4
  %72 = and i32 %71, 64
  %73 = icmp ne i32 %72, 0
  br i1 %73, label %74, label %102

74:                                               ; preds = %70
  %75 = load i32, ptr %9, align 4
  %76 = or i32 %75, 8388608
  store i32 %76, ptr %9, align 4
  %77 = load i8, ptr %8, align 1
  %78 = zext i8 %77 to i32
  %79 = icmp ne i32 %78, 1
  br i1 %79, label %80, label %101

80:                                               ; preds = %74
  %81 = load i32, ptr %5, align 4
  %82 = and i32 %81, 7
  %83 = icmp ne i32 %82, 0
  br i1 %83, label %84, label %87

84:                                               ; preds = %80
  %85 = load i32, ptr %9, align 4
  %86 = or i32 %85, 2097152
  store i32 %86, ptr %9, align 4
  br label %87

87:                                               ; preds = %84, %80
  %88 = load i32, ptr %5, align 4
  %89 = and i32 %88, 12582912
  %90 = icmp ne i32 %89, 0
  br i1 %90, label %91, label %96

91:                                               ; preds = %87
  %92 = load i32, ptr %5, align 4
  %93 = and i32 %92, 538968064
  %94 = icmp ne i32 %93, 0
  %95 = xor i1 %94, true
  br label %96

96:                                               ; preds = %91, %87
  %97 = phi i1 [ false, %87 ], [ %95, %91 ]
  %98 = select i1 %97, i32 4194304, i32 6291456
  %99 = load i32, ptr %9, align 4
  %100 = or i32 %99, %98
  store i32 %100, ptr %9, align 4
  br label %101

101:                                              ; preds = %96, %74
  br label %102

102:                                              ; preds = %101, %70
  %103 = load i32, ptr %6, align 4
  %104 = and i32 %103, 3
  %105 = icmp ne i32 %104, 0
  br i1 %105, label %106, label %109

106:                                              ; preds = %102
  %107 = load i32, ptr %9, align 4
  %108 = or i32 %107, 8388608
  store i32 %108, ptr %9, align 4
  br label %109

109:                                              ; preds = %106, %102
  br label %110

110:                                              ; preds = %109, %40
  br label %111

111:                                              ; preds = %110, %4
  %112 = load i32, ptr %9, align 4
  %113 = and i32 %112, 551550976
  %114 = icmp ne i32 %113, 0
  br i1 %114, label %115, label %121

115:                                              ; preds = %111
  %116 = load i32, ptr %7, align 4
  %117 = and i32 %116, 1022
  %118 = shl i32 %117, 10
  %119 = load i32, ptr %9, align 4
  %120 = or i32 %119, %118
  store i32 %120, ptr %9, align 4
  br label %121

121:                                              ; preds = %115, %111
  %122 = load i32, ptr %9, align 4
  %123 = and i32 %122, -536870913
  store i32 %123, ptr %9, align 4
  %124 = load i32, ptr %9, align 4
  ret i32 %124
}

; Function Attrs: nounwind uwtable
define internal i32 @assign_dim_result_type(i32 noundef %0, i32 noundef %1, i32 noundef %2, i8 noundef zeroext %3) #0 {
  %5 = alloca i32, align 4
  %6 = alloca i32, align 4
  %7 = alloca i32, align 4
  %8 = alloca i8, align 1
  %9 = alloca i32, align 4
  store i32 %0, ptr %5, align 4
  store i32 %1, ptr %6, align 4
  store i32 %2, ptr %7, align 4
  store i8 %3, ptr %8, align 1
  %10 = load i32, ptr %5, align 4
  %11 = and i32 %10, 1073741823
  store i32 %11, ptr %9, align 4
  %12 = load i32, ptr %5, align 4
  %13 = and i32 %12, 7
  %14 = icmp ne i32 %13, 0
  br i1 %14, label %15, label %20

15:                                               ; preds = %4
  %16 = load i32, ptr %9, align 4
  %17 = and i32 %16, -8
  store i32 %17, ptr %9, align 4
  %18 = load i32, ptr %9, align 4
  %19 = or i32 %18, 1073741952
  store i32 %19, ptr %9, align 4
  br label %20

20:                                               ; preds = %15, %4
  %21 = load i32, ptr %9, align 4
  %22 = and i32 %21, 192
  %23 = icmp ne i32 %22, 0
  br i1 %23, label %24, label %27

24:                                               ; preds = %20
  %25 = load i32, ptr %9, align 4
  %26 = or i32 %25, 1073741824
  store i32 %26, ptr %9, align 4
  br label %27

27:                                               ; preds = %24, %20
  %28 = load i32, ptr %9, align 4
  %29 = and i32 %28, 768
  %30 = icmp ne i32 %29, 0
  br i1 %30, label %31, label %34

31:                                               ; preds = %27
  %32 = load i32, ptr %9, align 4
  %33 = or i32 %32, -1073741824
  store i32 %33, ptr %9, align 4
  br label %34

34:                                               ; preds = %31, %27
  %35 = load i32, ptr %9, align 4
  %36 = and i32 %35, 128
  %37 = icmp ne i32 %36, 0
  br i1 %37, label %38, label %46

38:                                               ; preds = %34
  %39 = load i32, ptr %5, align 4
  %40 = load i32, ptr %6, align 4
  %41 = load i32, ptr %7, align 4
  %42 = load i8, ptr %8, align 1
  %43 = call i32 @assign_dim_array_result_type(i32 noundef %39, i32 noundef %40, i32 noundef %41, i8 noundef zeroext %42)
  %44 = load i32, ptr %9, align 4
  %45 = or i32 %44, %43
  store i32 %45, ptr %9, align 4
  br label %46

46:                                               ; preds = %38, %34
  %47 = load i32, ptr %9, align 4
  ret i32 %47
}