; Function Attrs: mustprogress nofree norecurse nosync nounwind willreturn memory(none) uwtable
define internal fastcc i32 @assign_dim_result_type(i32 noundef %0, i32 noundef %1, i32 noundef %2, i8 noundef zeroext %3) unnamed_addr #10 {
  %5 = and i32 %0, 1073741823
  %6 = and i32 %0, 7
  %.not = icmp eq i32 %6, 0
  %7 = and i32 %0, 1073741688
  %8 = or disjoint i32 %7, 1073741952
  %.0 = select i1 %.not, i32 %5, i32 %8
  %9 = and i32 %.0, 192
  %.not15 = icmp eq i32 %9, 0
  %10 = or i32 %.0, 1073741824
  %.1 = select i1 %.not15, i32 %.0, i32 %10
  %11 = and i32 %.1, 768
  %.not16 = icmp eq i32 %11, 0
  %12 = or i32 %.1, -1073741824
  %.2 = select i1 %.not16, i32 %.1, i32 %12
  %13 = and i32 %.2, 128
  %.not17 = icmp eq i32 %13, 0
  br i1 %.not17, label %56, label %14

14:                                               ; preds = %4
  %15 = and i32 %2, 1023
  %.not.i = icmp eq i32 %15, 0
  br i1 %.not.i, label %assign_dim_array_result_type.exit, label %16

16:                                               ; preds = %14
  %17 = shl i32 %2, 1
  %18 = and i32 %17, 2
  %spec.select.i = or i32 %18, %2
  %19 = icmp eq i8 %3, 0
  br i1 %19, label %20, label %27

20:                                               ; preds = %16
  %21 = and i32 %0, 12582912
  %22 = icmp ne i32 %21, 0
  %23 = and i32 %0, 538968071
  %24 = icmp eq i32 %23, 0
  %25 = and i1 %22, %24
  %26 = select i1 %25, i32 4194304, i32 6291456
  br label %assign_dim_array_result_type.exit

27:                                               ; preds = %16
  %28 = and i32 %1, 572
  %.not34.i = icmp eq i32 %28, 0
  br i1 %.not34.i, label %36, label %29

29:                                               ; preds = %27
  %30 = and i32 %0, 12582912
  %31 = icmp ne i32 %30, 0
  %32 = and i32 %0, 538968071
  %33 = icmp eq i32 %32, 0
  %34 = and i1 %31, %33
  %35 = select i1 %34, i32 4194304, i32 6291456
  br label %36

36:                                               ; preds = %29, %27
  %.2.i = phi i32 [ %35, %29 ], [ 0, %27 ]
  %37 = and i32 %1, 64
  %.not37.i = icmp eq i32 %37, 0
  br i1 %.not37.i, label %47, label %38

38:                                               ; preds = %36
  %39 = or disjoint i32 %.2.i, 8388608
  %.not38.i = icmp eq i8 %3, 1
  br i1 %.not38.i, label %47, label %40

40:                                               ; preds = %38
  %spec.select47.i = select i1 %.not, i32 %39, i32 10485760
  %41 = and i32 %0, 12582912
  %42 = icmp ne i32 %41, 0
  %43 = and i32 %0, 538968064
  %.not40.i = icmp eq i32 %43, 0
  %44 = and i1 %42, %.not40.i
  %45 = select i1 %44, i32 4194304, i32 6291456
  %46 = or i32 %spec.select47.i, %45
  br label %47

47:                                               ; preds = %40, %38, %36
  %.4.i = phi i32 [ %46, %40 ], [ %39, %38 ], [ %.2.i, %36 ]
  %48 = and i32 %1, 3
  %.not41.i = icmp eq i32 %48, 0
  %49 = or i32 %.4.i, 8388608
  %spec.select48.i = select i1 %.not41.i, i32 %.4.i, i32 %49
  br label %assign_dim_array_result_type.exit

assign_dim_array_result_type.exit:                ; preds = %14, %20, %47
  %.131.i = phi i32 [ %spec.select.i, %20 ], [ %2, %14 ], [ %spec.select.i, %47 ]
  %.5.i = phi i32 [ %26, %20 ], [ 0, %14 ], [ %spec.select48.i, %47 ]
  %50 = and i32 %.5.i, 551550976
  %.not44.i = icmp eq i32 %50, 0
  %51 = shl i32 %.131.i, 10
  %52 = and i32 %51, 1046528
  %53 = select i1 %.not44.i, i32 0, i32 %52
  %.5.masked.i = and i32 %.5.i, -536871041
  %54 = or i32 %.5.masked.i, %53
  %55 = or i32 %54, %.2
  br label %56

56:                                               ; preds = %assign_dim_array_result_type.exit, %4
  %.3 = phi i32 [ %55, %assign_dim_array_result_type.exit ], [ %.2, %4 ]
  ret i32 %.3
}